; Function Attrs: mustprogress uwtable
define void @_ZN6icu_7718DateIntervalFormat18setFallbackPatternE19UCalendarDateFieldsRKNS_13UnicodeStringER10UErrorCode(ptr noundef nonnull align 8 dereferenceable(1596) %0, i32 noundef %1, ptr noundef nonnull align 8 dereferenceable(64) %2, ptr noundef nonnull align 4 dereferenceable(4) %3) local_unnamed_addr #1 align 2 personality ptr @__gxx_personality_v0 {
  %5 = alloca i32, align 4
  %6 = alloca %"class.icu_77::UnicodeString", align 8
  %7 = load i32, ptr %3, align 4, !tbaa !13
  %8 = icmp slt i32 %7, 1
  br i1 %8, label %9, label %31

9:                                                ; preds = %4
  call void @llvm.lifetime.start.p0(i64 64, ptr nonnull %6) #19
  %10 = getelementptr inbounds nuw i8, ptr %0, i64 56
  call void @_ZN6icu_7710DateFormat14getBestPatternERKNS_6LocaleERKNS_13UnicodeStringER10UErrorCode(ptr dead_on_unwind nonnull writable sret(%"class.icu_77::UnicodeString") align 8 %6, ptr noundef nonnull align 8 dereferenceable(217) %10, ptr noundef nonnull align 8 dereferenceable(64) %2, ptr noundef nonnull align 4 dereferenceable(4) %3)
  %11 = load i32, ptr %3, align 4, !tbaa !13
  %12 = icmp slt i32 %11, 1
  br i1 %12, label %15, label %30

13:                                               ; preds = %23, %19, %15
  %14 = landingpad { ptr, i32 }
          cleanup
  call void @_ZN6icu_7713UnicodeStringD1Ev(ptr noundef nonnull align 8 dereferenceable(64) %6) #19
  call void @llvm.lifetime.end.p0(i64 64, ptr nonnull %6) #19
  resume { ptr, i32 } %14

15:                                               ; preds = %9
  %16 = getelementptr inbounds nuw i8, ptr %0, i64 24
  %17 = load ptr, ptr %16, align 8, !tbaa !49
  %18 = invoke noundef signext i8 @_ZNK6icu_7716DateIntervalInfo15getDefaultOrderEv(ptr noundef nonnull align 8 dereferenceable(88) %17)
          to label %19 unwind label %13

19:                                               ; preds = %15
  call void @llvm.lifetime.start.p0(i64 4, ptr nonnull %5) #19
  store i32 0, ptr %5, align 4, !tbaa !13
  %20 = invoke noundef i32 @_ZN6icu_7716DateIntervalInfo28calendarFieldToIntervalIndexE19UCalendarDateFieldsR10UErrorCode(i32 noundef %1, ptr noundef nonnull align 4 dereferenceable(4) %5)
          to label %.noexc unwind label %13

.noexc:                                           ; preds = %19
  %21 = load i32, ptr %5, align 4, !tbaa !13
  %22 = icmp slt i32 %21, 1
  br i1 %22, label %23, label %_ZN6icu_7718DateIntervalFormat14setPatternInfoE19UCalendarDateFieldsPKNS_13UnicodeStringES4_a.exit

23:                                               ; preds = %.noexc
  %24 = getelementptr inbounds nuw i8, ptr %0, i64 344
  %25 = sext i32 %20 to i64
  %26 = getelementptr inbounds [9 x %"struct.icu_77::DateIntervalFormat::PatternInfo"], ptr %24, i64 0, i64 %25
  %27 = getelementptr inbounds nuw i8, ptr %26, i64 64
  %28 = invoke noundef nonnull align 8 dereferenceable(64) ptr @_ZN6icu_7713UnicodeStringaSERKS0_(ptr noundef nonnull align 8 dereferenceable(64) %27, ptr noundef nonnull align 8 dereferenceable(64) %6)
          to label %.noexc8 unwind label %13

.noexc8:                                          ; preds = %23
  %29 = getelementptr inbounds nuw i8, ptr %26, i64 128
  store i8 %18, ptr %29, align 8, !tbaa !55
  br label %_ZN6icu_7718DateIntervalFormat14setPatternInfoE19UCalendarDateFieldsPKNS_13UnicodeStringES4_a.exit

_ZN6icu_7718DateIntervalFormat14setPatternInfoE19UCalendarDateFieldsPKNS_13UnicodeStringES4_a.exit: ; preds = %.noexc, %.noexc8
  call void @llvm.lifetime.end.p0(i64 4, ptr nonnull %5) #19
  br label %30

30:                                               ; preds = %_ZN6icu_7718DateIntervalFormat14setPatternInfoE19UCalendarDateFieldsPKNS_13UnicodeStringES4_a.exit, %9
  call void @_ZN6icu_7713UnicodeStringD1Ev(ptr noundef nonnull align 8 dereferenceable(64) %6) #19
  call void @llvm.lifetime.end.p0(i64 64, ptr nonnull %6) #19
  br label %31

31:                                               ; preds = %4, %30
  ret void
}